target datalayout = "e-m:e-p270:32:32-p271:32:32-p272:64:64-i64:64-i128:128-f80:128-n8:16:32:64-S128"
target triple = "x86_64-pc-linux-gnu"

%struct.t_rgb = type { double, double, double }
%"class.std::__cxx11::basic_string" = type { %"struct.std::__cxx11::basic_string<char>::_Alloc_hider", i64, %union.anon.3 }
%"struct.std::__cxx11::basic_string<char>::_Alloc_hider" = type { ptr }
%union.anon.3 = type { i64, [8 x i8] }
%struct.t_mapping = type { %struct.t_xpmelmt, %"class.std::__cxx11::basic_string", %struct.t_rgb }
%struct.t_xpmelmt = type { i8, i8 }
%"class.gmx::ArrayRef.40" = type { %"struct.gmx::ArrayRefIter.41", %"struct.gmx::ArrayRefIter.41" }
%"struct.gmx::ArrayRefIter.41" = type { ptr }
%class.anon.74 = type { i8 }

@.str.95 = private unnamed_addr constant [127 x i8] c"generated/home/dtcxzyw/WorkSpace/Projects/compilers/llvm-opt-benchmark/bench/gromacs/gromacs/src/gromacs/gmxana/gmx_xpm2ps.cpp\00", align 1
@_ZL5black = internal constant %struct.t_rgb zeroinitializer, align 8
@.str.187 = private unnamed_addr constant [13 x i8] c"!map.empty()\00", align 1
@.str.188 = private unnamed_addr constant [44 x i8] c"NULL map array provided to leg_continuous()\00", align 1

; Function Attrs: mustprogress nounwind uwtable
define linkonce_odr noundef nonnull align 8 dereferenceable(64) ptr @_ZNK3gmx12ArrayRefIterIK9t_mappingEdeEv(ptr noundef nonnull align 8 dereferenceable(8) %0) #3 comdat align 2 {
  %2 = alloca ptr, align 8
  store ptr %0, ptr %2, align 8
  %3 = load ptr, ptr %2, align 8
  %4 = getelementptr inbounds %"struct.gmx::ArrayRefIter.41", ptr %3, i32 0, i32 0
  %5 = load ptr, ptr %4, align 8
  ret ptr %5
}

; Function Attrs: mustprogress nounwind uwtable
define linkonce_odr noundef nonnull align 8 dereferenceable(8) ptr @_ZN3gmx12ArrayRefIterIK9t_mappingEpLEl(ptr noundef nonnull align 8 dereferenceable(8) %0, i64 noundef %1) #3 comdat align 2 {
  %3 = alloca ptr, align 8
  %4 = alloca i64, align 8
  store ptr %0, ptr %3, align 8
  store i64 %1, ptr %4, align 8
  %5 = load ptr, ptr %3, align 8
  %6 = load i64, ptr %4, align 8
  %7 = getelementptr inbounds %"struct.gmx::ArrayRefIter.41", ptr %5, i32 0, i32 0
  %8 = load ptr, ptr %7, align 8
  %9 = getelementptr inbounds %struct.t_mapping, ptr %8, i64 %6
  store ptr %9, ptr %7, align 8
  ret ptr %5
}

; Function Attrs: mustprogress nounwind uwtable
define linkonce_odr noundef nonnull align 8 dereferenceable(8) ptr @_ZNK3gmx5boost14stl_interfaces2v118iterator_interfaceINS_12ArrayRefIterIK9t_mappingEESt26random_access_iterator_tagS6_RS6_PS6_lvE7derivedEv(ptr noundef nonnull align 1 dereferenceable(1) %0) #3 comdat align 2 {
  %2 = alloca ptr, align 8
  store ptr %0, ptr %2, align 8
  %3 = load ptr, ptr %2, align 8
  ret ptr %3
}

; Function Attrs: mustprogress nounwind uwtable
define linkonce_odr noundef i64 @_ZN3gmx5boost14stl_interfaces6detail11common_diffINS_12ArrayRefIterIK9t_mappingEES7_EEDTmiscNSt11conditionalIXsr3std14is_convertibleIT_T0_EE5valueESA_S9_E4typeEfp_scSC_fp0_ES9_SA_(ptr %0, ptr %1) #3 comdat {
  %3 = alloca %"struct.gmx::ArrayRefIter.41", align 8
  %4 = alloca %"struct.gmx::ArrayRefIter.41", align 8
  %5 = alloca %"struct.gmx::ArrayRefIter.41", align 8
  %6 = alloca %"struct.gmx::ArrayRefIter.41", align 8
  %7 = getelementptr inbounds %"struct.gmx::ArrayRefIter.41", ptr %3, i32 0, i32 0
  store ptr %0, ptr %7, align 8
  %8 = getelementptr inbounds %"struct.gmx::ArrayRefIter.41", ptr %4, i32 0, i32 0
  store ptr %1, ptr %8, align 8
  call void @llvm.memcpy.p0.p0.i64(ptr align 8 %5, ptr align 8 %3, i64 8, i1 false)
  call void @llvm.memcpy.p0.p0.i64(ptr align 8 %6, ptr align 8 %4, i64 8, i1 false)
  %9 = getelementptr inbounds %"struct.gmx::ArrayRefIter.41", ptr %6, i32 0, i32 0
  %10 = load ptr, ptr %9, align 8
  %11 = call noundef i64 @_ZNK3gmx12ArrayRefIterIK9t_mappingEmiES3_(ptr noundef nonnull align 8 dereferenceable(8) %5, ptr %10) #13
  ret i64 %11
}

; Function Attrs: mustprogress nounwind uwtable
define linkonce_odr noundef i64 @_ZNK3gmx12ArrayRefIterIK9t_mappingEmiES3_(ptr noundef nonnull align 8 dereferenceable(8) %0, ptr %1) #3 comdat align 2 {
  %3 = alloca %"struct.gmx::ArrayRefIter.41", align 8
  %4 = alloca ptr, align 8
  %5 = getelementptr inbounds %"struct.gmx::ArrayRefIter.41", ptr %3, i32 0, i32 0
  store ptr %1, ptr %5, align 8
  store ptr %0, ptr %4, align 8
  %6 = load ptr, ptr %4, align 8
  %7 = getelementptr inbounds %"struct.gmx::ArrayRefIter.41", ptr %6, i32 0, i32 0
  %8 = load ptr, ptr %7, align 8
  %9 = getelementptr inbounds %"struct.gmx::ArrayRefIter.41", ptr %3, i32 0, i32 0
  %10 = load ptr, ptr %9, align 8
  %11 = ptrtoint ptr %8 to i64
  %12 = ptrtoint ptr %10 to i64
  %13 = sub i64 %11, %12
  %14 = sdiv exact i64 %13, 64
  ret i64 %14
}

; Function Attrs: mustprogress nounwind uwtable
define linkonce_odr noundef nonnull align 8 dereferenceable(64) ptr @_ZNK3gmx5boost14stl_interfaces2v118iterator_interfaceINS_12ArrayRefIterIK9t_mappingEESt26random_access_iterator_tagS6_RS6_PS6_lvEixIS7_EEDTcmpLclsr3stdE7declvalIRT_EEfp_declsr3stdE7declvalISE_EEEl(ptr noundef nonnull align 1 dereferenceable(1) %0, i64 noundef %1) #3 comdat align 2 {
  %3 = alloca ptr, align 8
  %4 = alloca i64, align 8
  %5 = alloca %"struct.gmx::ArrayRefIter.41", align 8
  store ptr %0, ptr %3, align 8
  store i64 %1, ptr %4, align 8
  %6 = load ptr, ptr %3, align 8
  %7 = call noundef nonnull align 8 dereferenceable(8) ptr @_ZNK3gmx5boost14stl_interfaces2v118iterator_interfaceINS_12ArrayRefIterIK9t_mappingEESt26random_access_iterator_tagS6_RS6_PS6_lvE7derivedEv(ptr noundef nonnull align 1 dereferenceable(1) %6) #13
  call void @llvm.memcpy.p0.p0.i64(ptr align 8 %5, ptr align 8 %7, i64 8, i1 false)
  %8 = load i64, ptr %4, align 8
  %9 = call noundef nonnull align 8 dereferenceable(8) ptr @_ZN3gmx12ArrayRefIterIK9t_mappingEpLEl(ptr noundef nonnull align 8 dereferenceable(8) %5, i64 noundef %8) #13
  %10 = call noundef nonnull align 8 dereferenceable(64) ptr @_ZNK3gmx12ArrayRefIterIK9t_mappingEdeEv(ptr noundef nonnull align 8 dereferenceable(8) %5) #13
  ret ptr %10
}

; Function Attrs: mustprogress nounwind uwtable
define linkonce_odr noundef zeroext i1 @_ZN3gmx5boost14stl_interfaces2v1eqINS_12ArrayRefIterIK9t_mappingEES7_vEEDTcmclsr6v1_dtlE16derived_iteratorfp_Eeqclsr6detailE11common_difffp_fp0_ELi0EET_T0_(ptr %0, ptr %1) #3 comdat {
  %3 = alloca %"struct.gmx::ArrayRefIter.41", align 8
  %4 = alloca %"struct.gmx::ArrayRefIter.41", align 8
  %5 = alloca %"struct.gmx::ArrayRefIter.41", align 8
  %6 = alloca %"struct.gmx::ArrayRefIter.41", align 8
  %7 = getelementptr inbounds %"struct.gmx::ArrayRefIter.41", ptr %3, i32 0, i32 0
  store ptr %0, ptr %7, align 8
  %8 = getelementptr inbounds %"struct.gmx::ArrayRefIter.41", ptr %4, i32 0, i32 0
  store ptr %1, ptr %8, align 8
  call void @llvm.memcpy.p0.p0.i64(ptr align 8 %5, ptr align 8 %3, i64 8, i1 false)
  call void @llvm.memcpy.p0.p0.i64(ptr align 8 %6, ptr align 8 %4, i64 8, i1 false)
  %9 = getelementptr inbounds %"struct.gmx::ArrayRefIter.41", ptr %5, i32 0, i32 0
  %10 = load ptr, ptr %9, align 8
  %11 = getelementptr inbounds %"struct.gmx::ArrayRefIter.41", ptr %6, i32 0, i32 0
  %12 = load ptr, ptr %11, align 8
  %13 = call noundef i64 @_ZN3gmx5boost14stl_interfaces6detail11common_diffINS_12ArrayRefIterIK9t_mappingEES7_EEDTmiscNSt11conditionalIXsr3std14is_convertibleIT_T0_EE5valueESA_S9_E4typeEfp_scSC_fp0_ES9_SA_(ptr %10, ptr %12) #13
  %14 = icmp eq i64 %13, 0
  ret i1 %14
}

; Function Attrs: mustprogress nounwind uwtable
define linkonce_odr noundef i64 @_ZNK3gmx8ArrayRefIK9t_mappingE4sizeEv(ptr noundef nonnull align 8 dereferenceable(16) %0) #3 comdat align 2 {
  %2 = alloca ptr, align 8
  %3 = alloca %"struct.gmx::ArrayRefIter.41", align 8
  store ptr %0, ptr %2, align 8
  %4 = load ptr, ptr %2, align 8
  %5 = getelementptr inbounds %"class.gmx::ArrayRef.40", ptr %4, i32 0, i32 1
  %6 = getelementptr inbounds %"class.gmx::ArrayRef.40", ptr %4, i32 0, i32 0
  call void @llvm.memcpy.p0.p0.i64(ptr align 8 %3, ptr align 8 %6, i64 8, i1 false)
  %7 = getelementptr inbounds %"struct.gmx::ArrayRefIter.41", ptr %3, i32 0, i32 0
  %8 = load ptr, ptr %7, align 8
  %9 = call noundef i64 @_ZNK3gmx12ArrayRefIterIK9t_mappingEmiES3_(ptr noundef nonnull align 8 dereferenceable(8) %5, ptr %8) #13
  ret i64 %9
}

; Function Attrs: mustprogress nounwind uwtable
define linkonce_odr noundef nonnull align 8 dereferenceable(64) ptr @_ZNK3gmx8ArrayRefIK9t_mappingEixEm(ptr noundef nonnull align 8 dereferenceable(16) %0, i64 noundef %1) #3 comdat align 2 {
  %3 = alloca ptr, align 8
  %4 = alloca i64, align 8
  store ptr %0, ptr %3, align 8
  store i64 %1, ptr %4, align 8
  %5 = load ptr, ptr %3, align 8
  %6 = getelementptr inbounds %"class.gmx::ArrayRef.40", ptr %5, i32 0, i32 0
  %7 = load i64, ptr %4, align 8
  %8 = call noundef nonnull align 8 dereferenceable(64) ptr @_ZNK3gmx5boost14stl_interfaces2v118iterator_interfaceINS_12ArrayRefIterIK9t_mappingEESt26random_access_iterator_tagS6_RS6_PS6_lvEixIS7_EEDTcmpLclsr3stdE7declvalIRT_EEfp_declsr3stdE7declvalISE_EEEl(ptr noundef nonnull align 1 dereferenceable(1) %6, i64 noundef %7) #13
  ret ptr %8
}

; Function Attrs: mustprogress uwtable
define internal void @"_ZZL14leg_continuousP8t_psdatafffRKNSt7__cxx1112basic_stringIcSt11char_traitsIcESaIcEEEfPcN3gmx8ArrayRefIK9t_mappingEEiENK3$_0clEv"(ptr noundef nonnull align 1 dereferenceable(1) %0) #0 align 2 {
  %2 = alloca ptr, align 8
  store ptr %0, ptr %2, align 8
  call void @_ZN3gmx8internal13assertHandlerEPKcS2_S2_S2_i(ptr noundef @.str.187, ptr noundef @.str.188, ptr noundef @"__PRETTY_FUNCTION__._ZZL14leg_continuousP8t_psdatafffRKNSt7__cxx1112basic_stringIcSt11char_traitsIcESaIcEEEfPcN3gmx8ArrayRefIK9t_mappingEEiENK3$_0clEv", ptr noundef @.str.95, i32 noundef 271) #14
  unreachable
}

; Function Attrs: mustprogress nounwind uwtable
define linkonce_odr noundef zeroext i1 @_ZNK3gmx8ArrayRefIK9t_mappingE5emptyEv(ptr noundef nonnull align 8 dereferenceable(16) %0) #3 comdat align 2 {
  %2 = alloca ptr, align 8
  %3 = alloca %"struct.gmx::ArrayRefIter.41", align 8
  %4 = alloca %"struct.gmx::ArrayRefIter.41", align 8
  store ptr %0, ptr %2, align 8
  %5 = load ptr, ptr %2, align 8
  %6 = getelementptr inbounds %"class.gmx::ArrayRef.40", ptr %5, i32 0, i32 0
  call void @llvm.memcpy.p0.p0.i64(ptr align 8 %3, ptr align 8 %6, i64 8, i1 false)
  %7 = getelementptr inbounds %"class.gmx::ArrayRef.40", ptr %5, i32 0, i32 1
  call void @llvm.memcpy.p0.p0.i64(ptr align 8 %4, ptr align 8 %7, i64 8, i1 false)
  %8 = getelementptr inbounds %"struct.gmx::ArrayRefIter.41", ptr %3, i32 0, i32 0
  %9 = load ptr, ptr %8, align 8
  %10 = getelementptr inbounds %"struct.gmx::ArrayRefIter.41", ptr %4, i32 0, i32 0
  %11 = load ptr, ptr %10, align 8
  %12 = call noundef zeroext i1 @_ZN3gmx5boost14stl_interfaces2v1eqINS_12ArrayRefIterIK9t_mappingEES7_vEEDTcmclsr6v1_dtlE16derived_iteratorfp_Eeqclsr6detailE11common_difffp_fp0_ELi0EET_T0_(ptr %9, ptr %11) #13
  ret i1 %12
}

; Function Attrs: mustprogress nounwind uwtable
define linkonce_odr noundef i64 @_ZN3gmx5ssizeINS_8ArrayRefIK9t_mappingEEEElRKT_(ptr noundef nonnull align 8 dereferenceable(16) %0) #3 comdat {
  %2 = alloca ptr, align 8
  store ptr %0, ptr %2, align 8
  %3 = load ptr, ptr %2, align 8
  %4 = call noundef i64 @_ZNK3gmx8ArrayRefIK9t_mappingE4sizeEv(ptr noundef nonnull align 8 dereferenceable(16) %3)
  ret i64 %4
}

; Function Attrs: mustprogress uwtable
define internal void @_ZL14leg_continuousP8t_psdatafffRKNSt7__cxx1112basic_stringIcSt11char_traitsIcESaIcEEEfPcN3gmx8ArrayRefIK9t_mappingEEi(ptr noundef %0, float noundef %1, float noundef %2, float noundef %3, ptr noundef nonnull align 8 dereferenceable(32) %4, float noundef %5, ptr noundef %6, ptr %7, ptr %8, i32 noundef %9) #0 {
  %11 = alloca %"class.gmx::ArrayRef.40", align 8
  %12 = alloca ptr, align 8
  %13 = alloca float, align 4
  %14 = alloca float, align 4
  %15 = alloca float, align 4
  %16 = alloca ptr, align 8
  %17 = alloca float, align 4
  %18 = alloca ptr, align 8
  %19 = alloca i32, align 4
  %20 = alloca float, align 4
  %21 = alloca float, align 4
  %22 = alloca float, align 4
  %23 = alloca float, align 4
  %24 = alloca i64, align 8
  %25 = alloca %class.anon.74, align 1
  %26 = alloca i64, align 8
  %27 = getelementptr inbounds { ptr, ptr }, ptr %11, i32 0, i32 0
  store ptr %7, ptr %27, align 8
  %28 = getelementptr inbounds { ptr, ptr }, ptr %11, i32 0, i32 1
  store ptr %8, ptr %28, align 8
  store ptr %0, ptr %12, align 8
  store float %1, ptr %13, align 4
  store float %2, ptr %14, align 4
  store float %3, ptr %15, align 4
  store ptr %4, ptr %16, align 8
  store float %5, ptr %17, align 4
  store ptr %6, ptr %18, align 8
  store i32 %9, ptr %19, align 4
  %29 = call noundef i64 @_ZN3gmx5ssizeINS_8ArrayRefIK9t_mappingEEEElRKT_(ptr noundef nonnull align 8 dereferenceable(16) %11)
  %30 = load i32, ptr %19, align 4
  %31 = sext i32 %30 to i64
  %32 = sub nsw i64 %29, %31
  store i64 %32, ptr %24, align 8
  %33 = load float, ptr %17, align 4
  store float %33, ptr %23, align 4
  %34 = load float, ptr %14, align 4
  %35 = load float, ptr %17, align 4
  %36 = fmul float 8.000000e+00, %35
  %37 = fcmp olt float %34, %36
  br i1 %37, label %38, label %41

38:                                               ; preds = %10
  %39 = load float, ptr %17, align 4
  %40 = fmul float 8.000000e+00, %39
  store float %40, ptr %14, align 4
  br label %41

41:                                               ; preds = %38, %10
  %42 = load float, ptr %14, align 4
  %43 = load i64, ptr %24, align 8
  %44 = sitofp i64 %43 to float
  %45 = fdiv float %42, %44
  store float %45, ptr %22, align 4
  %46 = load float, ptr %22, align 4
  %47 = load float, ptr %17, align 4
  %48 = fcmp ogt float %46, %47
  br i1 %48, label %49, label %51

49:                                               ; preds = %41
  %50 = load float, ptr %17, align 4
  store float %50, ptr %22, align 4
  br label %51

51:                                               ; preds = %49, %41
  %52 = call noundef zeroext i1 @_ZNK3gmx8ArrayRefIK9t_mappingE5emptyEv(ptr noundef nonnull align 8 dereferenceable(16) %11)
  br i1 %52, label %54, label %53

53:                                               ; preds = %51
  br label %55

54:                                               ; preds = %51
  call void @"_ZZL14leg_continuousP8t_psdatafffRKNSt7__cxx1112basic_stringIcSt11char_traitsIcESaIcEEEfPcN3gmx8ArrayRefIK9t_mappingEEiENK3$_0clEv"(ptr noundef nonnull align 1 dereferenceable(1) %25)
  br label %55

55:                                               ; preds = %54, %53
  %56 = load float, ptr %13, align 4
  %57 = fpext float %56 to double
  %58 = load i64, ptr %24, align 8
  %59 = sitofp i64 %58 to float
  %60 = load float, ptr %22, align 4
  %61 = fmul float %59, %60
  %62 = fpext float %61 to double
  %63 = fdiv double %62, 2.000000e+00
  %64 = fsub double %57, %63
  %65 = fptrunc double %64 to float
  store float %65, ptr %20, align 4
  store i64 0, ptr %26, align 8
  br label %66

66:                                               ; preds = %94, %55
  %67 = load i64, ptr %26, align 8
  %68 = load i64, ptr %24, align 8
  %69 = icmp slt i64 %67, %68
  br i1 %69, label %70, label %97

70:                                               ; preds = %66
  %71 = load ptr, ptr %12, align 8
  %72 = load i64, ptr %26, align 8
  %73 = load i32, ptr %19, align 4
  %74 = sext i32 %73 to i64
  %75 = add nsw i64 %72, %74
  %76 = call noundef nonnull align 8 dereferenceable(64) ptr @_ZNK3gmx8ArrayRefIK9t_mappingEixEm(ptr noundef nonnull align 8 dereferenceable(16) %11, i64 noundef %75)
  %77 = getelementptr inbounds %struct.t_mapping, ptr %76, i32 0, i32 2
  call void @_Z6ps_rgbP8t_psdataPK5t_rgb(ptr noundef %71, ptr noundef %77)
  %78 = load ptr, ptr %12, align 8
  %79 = load float, ptr %20, align 4
  %80 = load i64, ptr %26, align 8
  %81 = sitofp i64 %80 to float
  %82 = load float, ptr %22, align 4
  %83 = call float @llvm.fmuladd.f32(float %81, float %82, float %79)
  %84 = load float, ptr %15, align 4
  %85 = load float, ptr %20, align 4
  %86 = load i64, ptr %26, align 8
  %87 = add nsw i64 %86, 1
  %88 = sitofp i64 %87 to float
  %89 = load float, ptr %22, align 4
  %90 = call float @llvm.fmuladd.f32(float %88, float %89, float %85)
  %91 = load float, ptr %15, align 4
  %92 = load float, ptr %23, align 4
  %93 = fadd float %91, %92
  call void @_Z10ps_fillboxP8t_psdataffff(ptr noundef %78, float noundef %83, float noundef %84, float noundef %90, float noundef %93)
  br label %94

94:                                               ; preds = %70
  %95 = load i64, ptr %26, align 8
  %96 = add nsw i64 %95, 1
  store i64 %96, ptr %26, align 8
  br label %66, !llvm.loop !49

97:                                               ; preds = %66
  %98 = load ptr, ptr %12, align 8
  %99 = load ptr, ptr %18, align 8
  %100 = load float, ptr %17, align 4
  call void @_Z10ps_strfontP8t_psdataPcf(ptr noundef %98, ptr noundef %99, float noundef %100)
  %101 = load ptr, ptr %12, align 8
  call void @_Z6ps_rgbP8t_psdataPK5t_rgb(ptr noundef %101, ptr noundef @_ZL5black)
  %102 = load ptr, ptr %12, align 8
  %103 = load float, ptr %20, align 4
  %104 = load float, ptr %15, align 4
  %105 = load float, ptr %20, align 4
  %106 = load i64, ptr %24, align 8
  %107 = sitofp i64 %106 to float
  %108 = load float, ptr %22, align 4
  %109 = call float @llvm.fmuladd.f32(float %107, float %108, float %105)
  %110 = load float, ptr %15, align 4
  %111 = load float, ptr %23, align 4
  %112 = fadd float %110, %111
  call void @_Z6ps_boxP8t_psdataffff(ptr noundef %102, float noundef %103, float noundef %104, float noundef %109, float noundef %112)
  %113 = load float, ptr %15, align 4
  %114 = load float, ptr %23, align 4
  %115 = fadd float %113, %114
  %116 = fadd float %115, 6.000000e+00
  store float %116, ptr %21, align 4
  %117 = load ptr, ptr %12, align 8
  %118 = load float, ptr %20, align 4
  %119 = load float, ptr %22, align 4
  %120 = fdiv float %119, 2.000000e+00
  %121 = fadd float %118, %120
  %122 = load float, ptr %21, align 4
  %123 = call noundef nonnull align 8 dereferenceable(64) ptr @_ZNK3gmx8ArrayRefIK9t_mappingEixEm(ptr noundef nonnull align 8 dereferenceable(16) %11, i64 noundef 0)
  %124 = getelementptr inbounds %struct.t_mapping, ptr %123, i32 0, i32 1
  call void @_Z8ps_ctextP8t_psdataffRKNSt7__cxx1112basic_stringIcSt11char_traitsIcESaIcEEEi(ptr noundef %117, float noundef %121, float noundef %122, ptr noundef nonnull align 8 dereferenceable(32) %124, i32 noundef 0)
  %125 = load ptr, ptr %16, align 8
  %126 = call noundef zeroext i1 @_ZNKSt7__cxx1112basic_stringIcSt11char_traitsIcESaIcEE5emptyEv(ptr noundef nonnull align 8 dereferenceable(32) %125) #13
  br i1 %126, label %132, label %127

127:                                              ; preds = %97
  %128 = load ptr, ptr %12, align 8
  %129 = load float, ptr %13, align 4
  %130 = load float, ptr %21, align 4
  %131 = load ptr, ptr %16, align 8
  call void @_Z8ps_ctextP8t_psdataffRKNSt7__cxx1112basic_stringIcSt11char_traitsIcESaIcEEEi(ptr noundef %128, float noundef %129, float noundef %130, ptr noundef nonnull align 8 dereferenceable(32) %131, i32 noundef 0)
  br label %132

132:                                              ; preds = %127, %97
  %133 = load ptr, ptr %12, align 8
  %134 = load float, ptr %20, align 4
  %135 = load i64, ptr %24, align 8
  %136 = sitofp i64 %135 to float
  %137 = load float, ptr %22, align 4
  %138 = call float @llvm.fmuladd.f32(float %136, float %137, float %134)
  %139 = load float, ptr %22, align 4
  %140 = fdiv float %139, 2.000000e+00
  %141 = fsub float %138, %140
  %142 = load float, ptr %21, align 4
  %143 = call noundef i64 @_ZNK3gmx8ArrayRefIK9t_mappingE4sizeEv(ptr noundef nonnull align 8 dereferenceable(16) %11)
  %144 = sub i64 %143, 1
  %145 = call noundef nonnull align 8 dereferenceable(64) ptr @_ZNK3gmx8ArrayRefIK9t_mappingEixEm(ptr noundef nonnull align 8 dereferenceable(16) %11, i64 noundef %144)
  %146 = getelementptr inbounds %struct.t_mapping, ptr %145, i32 0, i32 1
  call void @_Z8ps_ctextP8t_psdataffRKNSt7__cxx1112basic_stringIcSt11char_traitsIcESaIcEEEi(ptr noundef %133, float noundef %141, float noundef %142, ptr noundef nonnull align 8 dereferenceable(32) %146, i32 noundef 0)
  ret void
}