; Function Attrs: mustprogress uwtable
define internal fastcc void @_ZL14leg_continuousP8t_psdatafffRKNSt7__cxx1112basic_stringIcSt11char_traitsIcESaIcEEEfPcN3gmx8ArrayRefIK9t_mappingEEi(ptr noundef %0, float noundef %1, float noundef %2, ptr noundef nonnull align 8 dereferenceable(32) %3, float noundef %4, ptr noundef %5, ptr %6, ptr %7, i32 noundef %8) unnamed_addr #0 {
  %10 = ptrtoint ptr %7 to i64
  %11 = ptrtoint ptr %6 to i64
  %12 = sub i64 %10, %11
  %13 = ashr exact i64 %12, 6
  %14 = sext i32 %8 to i64
  %15 = sub nsw i64 %13, %14
  %16 = fmul float %4, 8.000000e+00
  %17 = fcmp ogt float %16, %2
  %.057 = select i1 %17, float %16, float %2
  %18 = sitofp i64 %15 to float
  %19 = fdiv float %.057, %18
  %20 = fcmp ogt float %19, %4
  %.058 = select i1 %20, float %4, float %19
  %21 = icmp eq ptr %6, %7
  br i1 %21, label %22, label %23

22:                                               ; preds = %9
  tail call void @_ZN3gmx8internal13assertHandlerEPKcS2_S2_S2_i(ptr noundef nonnull @.str.187, ptr noundef nonnull @.str.188, ptr noundef nonnull @"__PRETTY_FUNCTION__._ZZL14leg_continuousP8t_psdatafffRKNSt7__cxx1112basic_stringIcSt11char_traitsIcESaIcEEEfPcN3gmx8ArrayRefIK9t_mappingEEiENK3$_0clEv", ptr noundef nonnull @.str.95, i32 noundef 271) #23
  unreachable

23:                                               ; preds = %9
  %24 = fpext float %1 to double
  %25 = fmul float %.058, %18
  %26 = fpext float %25 to double
  %27 = fmul double %26, 5.000000e-01
  %28 = fsub double %24, %27
  %29 = fptrunc double %28 to float
  %invariant.gep = getelementptr %struct.t_mapping, ptr %6, i64 %14, i32 2
  %30 = icmp sgt i64 %15, 0
  %31 = fadd float %4, 2.000000e+00
  br i1 %30, label %.lr.ph, label %._crit_edge

.lr.ph:                                           ; preds = %23, %.lr.ph
  %.067 = phi i64 [ %34, %.lr.ph ], [ 0, %23 ]
  %gep = getelementptr %struct.t_mapping, ptr %invariant.gep, i64 %.067
  tail call void @_Z6ps_rgbP8t_psdataPK5t_rgb(ptr noundef %0, ptr noundef nonnull %gep)
  %32 = uitofp nneg i64 %.067 to float
  %33 = tail call float @llvm.fmuladd.f32(float %32, float %.058, float %29)
  %34 = add nuw nsw i64 %.067, 1
  %35 = uitofp nneg i64 %34 to float
  %36 = tail call float @llvm.fmuladd.f32(float %35, float %.058, float %29)
  tail call void @_Z10ps_fillboxP8t_psdataffff(ptr noundef %0, float noundef %33, float noundef 2.000000e+00, float noundef %36, float noundef %31)
  %exitcond.not = icmp eq i64 %34, %15
  br i1 %exitcond.not, label %._crit_edge, label %.lr.ph, !llvm.loop !62

._crit_edge:                                      ; preds = %.lr.ph, %23
  tail call void @_Z10ps_strfontP8t_psdataPcf(ptr noundef %0, ptr noundef %5, float noundef %4)
  tail call void @_Z6ps_rgbP8t_psdataPK5t_rgb(ptr noundef %0, ptr noundef nonnull @_ZL5black)
  %37 = tail call float @llvm.fmuladd.f32(float %18, float %.058, float %29)
  tail call void @_Z6ps_boxP8t_psdataffff(ptr noundef %0, float noundef %29, float noundef 2.000000e+00, float noundef %37, float noundef %31)
  %38 = fadd float %31, 6.000000e+00
  %39 = fmul float %.058, 5.000000e-01
  %40 = fadd float %39, %29
  %41 = getelementptr inbounds i8, ptr %6, i64 8
  tail call void @_Z8ps_ctextP8t_psdataffRKNSt7__cxx1112basic_stringIcSt11char_traitsIcESaIcEEEi(ptr noundef %0, float noundef %40, float noundef %38, ptr noundef nonnull align 8 dereferenceable(32) %41, i32 noundef 0)
  %42 = tail call noundef zeroext i1 @_ZNKSt7__cxx1112basic_stringIcSt11char_traitsIcESaIcEE5emptyEv(ptr noundef nonnull align 8 dereferenceable(32) %3) #24
  br i1 %42, label %44, label %43

43:                                               ; preds = %._crit_edge
  tail call void @_Z8ps_ctextP8t_psdataffRKNSt7__cxx1112basic_stringIcSt11char_traitsIcESaIcEEEi(ptr noundef %0, float noundef %1, float noundef %38, ptr noundef nonnull align 8 dereferenceable(32) %3, i32 noundef 0)
  br label %44

44:                                               ; preds = %43, %._crit_edge
  %45 = fsub float %37, %39
  %46 = getelementptr i8, ptr %6, i64 %12
  %47 = getelementptr i8, ptr %46, i64 -56
  tail call void @_Z8ps_ctextP8t_psdataffRKNSt7__cxx1112basic_stringIcSt11char_traitsIcESaIcEEEi(ptr noundef %0, float noundef %45, float noundef %38, ptr noundef nonnull align 8 dereferenceable(32) %47, i32 noundef 0)
  ret void
}